; Function Attrs: nounwind uwtable
define dso_local i64 @dsa_get_total_size(ptr noundef readonly captures(none) %0) local_unnamed_addr #0 {
  %2 = load ptr, ptr %0, align 8
  %3 = getelementptr inbounds nuw i8, ptr %2, i64 6172
  %4 = tail call zeroext i1 @LWLockAcquire(ptr noundef nonnull %3, i32 noundef 0) #11
  %5 = load ptr, ptr %0, align 8
  %6 = getelementptr inbounds nuw i8, ptr %5, i64 6128
  %7 = load i64, ptr %6, align 8
  %8 = getelementptr inbounds nuw i8, ptr %5, i64 6172
  tail call void @LWLockRelease(ptr noundef nonnull %8) #11
  ret i64 %7
}